target datalayout = "e-m:e-p270:32:32-p271:32:32-p272:64:64-i64:64-i128:128-f80:128-n8:16:32:64-S128"
target triple = "x86_64-pc-linux-gnu"

%struct.AVFilterContext = type { ptr, ptr, ptr, ptr, ptr, i32, ptr, ptr, i32, ptr, ptr, i32, i32, ptr, ptr, ptr, ptr, i32, ptr, i32, i32 }
%struct.TiltandshiftContext = type { ptr, i32, i32, i32, i32, i32, i32, [4 x ptr], [4 x i32], i64, ptr, ptr, ptr }
%struct.AVFilterLink = type { ptr, ptr, ptr, ptr, i32, i32, i32, i32, %struct.AVRational, i32, i32, i32, %struct.AVChannelLayout, %struct.AVRational, ptr, i32, %struct.AVFilterFormatsConfig, %struct.AVFilterFormatsConfig }
%struct.AVChannelLayout = type { i32, i32, %union.anon.1, ptr }
%union.anon.1 = type { i64 }
%struct.AVRational = type { i32, i32 }
%struct.AVFilterFormatsConfig = type { ptr, ptr, ptr, ptr, ptr }

@.str.5 = private unnamed_addr constant [28 x i8] c"Emptying buffers (%zu/%d).\0A\00", align 1

; Function Attrs: nounwind uwtable
define internal i32 @request_frame(ptr noundef %0) #1 {
  %2 = alloca i32, align 4
  %3 = alloca ptr, align 8
  %4 = alloca ptr, align 8
  %5 = alloca ptr, align 8
  %6 = alloca i32, align 4
  %7 = alloca i32, align 4
  store ptr %0, ptr %3, align 8, !tbaa !31
  call void @llvm.lifetime.start.p0(i64 8, ptr %4) #6
  %8 = load ptr, ptr %3, align 8, !tbaa !31
  %9 = getelementptr inbounds nuw %struct.AVFilterLink, ptr %8, i32 0, i32 0
  %10 = load ptr, ptr %9, align 8, !tbaa !43
  store ptr %10, ptr %4, align 8, !tbaa !4
  call void @llvm.lifetime.start.p0(i64 8, ptr %5) #6
  %11 = load ptr, ptr %4, align 8, !tbaa !4
  %12 = getelementptr inbounds nuw %struct.AVFilterContext, ptr %11, i32 0, i32 9
  %13 = load ptr, ptr %12, align 8, !tbaa !9
  store ptr %13, ptr %5, align 8, !tbaa !22
  call void @llvm.lifetime.start.p0(i64 4, ptr %6) #6
  %14 = load ptr, ptr %5, align 8, !tbaa !22
  %15 = getelementptr inbounds nuw %struct.TiltandshiftContext, ptr %14, i32 0, i32 9
  %16 = load i64, ptr %15, align 8, !tbaa !46
  %17 = icmp ule i64 %16, 0
  br i1 %17, label %36, label %18

18:                                               ; preds = %1
  %19 = load ptr, ptr %5, align 8, !tbaa !22
  %20 = getelementptr inbounds nuw %struct.TiltandshiftContext, ptr %19, i32 0, i32 9
  %21 = load i64, ptr %20, align 8, !tbaa !46
  %22 = load ptr, ptr %3, align 8, !tbaa !31
  %23 = getelementptr inbounds nuw %struct.AVFilterLink, ptr %22, i32 0, i32 6
  %24 = load i32, ptr %23, align 8, !tbaa !47
  %25 = load ptr, ptr %5, align 8, !tbaa !22
  %26 = getelementptr inbounds nuw %struct.TiltandshiftContext, ptr %25, i32 0, i32 6
  %27 = load i32, ptr %26, align 4, !tbaa !48
  %28 = sub nsw i32 %24, %27
  %29 = sext i32 %28 to i64
  %30 = icmp eq i64 %21, %29
  br i1 %30, label %36, label %31

31:                                               ; preds = %18
  %32 = load ptr, ptr %5, align 8, !tbaa !22
  %33 = getelementptr inbounds nuw %struct.TiltandshiftContext, ptr %32, i32 0, i32 4
  %34 = load i32, ptr %33, align 4, !tbaa !62
  %35 = icmp eq i32 %34, 0
  br i1 %35, label %36, label %42

36:                                               ; preds = %31, %18, %1
  %37 = load ptr, ptr %5, align 8, !tbaa !22
  %38 = getelementptr inbounds nuw %struct.TiltandshiftContext, ptr %37, i32 0, i32 1
  %39 = load i32, ptr %38, align 8, !tbaa !45
  %40 = icmp ne i32 %39, 0
  br i1 %40, label %41, label %42

41:                                               ; preds = %36
  store i32 -541478725, ptr %2, align 4
  store i32 1, ptr %7, align 4
  br label %92

42:                                               ; preds = %36, %31
  %43 = load ptr, ptr %4, align 8, !tbaa !4
  %44 = getelementptr inbounds nuw %struct.AVFilterContext, ptr %43, i32 0, i32 4
  %45 = load ptr, ptr %44, align 8, !tbaa !73
  %46 = getelementptr inbounds ptr, ptr %45, i64 0
  %47 = load ptr, ptr %46, align 8, !tbaa !31
  %48 = call i32 @ff_request_frame(ptr noundef %47)
  store i32 %48, ptr %6, align 4, !tbaa !44
  %49 = load i32, ptr %6, align 4, !tbaa !44
  %50 = icmp eq i32 %49, -541478725
  br i1 %50, label %51, label %54

51:                                               ; preds = %42
  %52 = load ptr, ptr %5, align 8, !tbaa !22
  %53 = getelementptr inbounds nuw %struct.TiltandshiftContext, ptr %52, i32 0, i32 1
  store i32 1, ptr %53, align 8, !tbaa !45
  br label %60

54:                                               ; preds = %42
  %55 = load i32, ptr %6, align 4, !tbaa !44
  %56 = icmp slt i32 %55, 0
  br i1 %56, label %57, label %59

57:                                               ; preds = %54
  %58 = load i32, ptr %6, align 4, !tbaa !44
  store i32 %58, ptr %2, align 4
  store i32 1, ptr %7, align 4
  br label %92

59:                                               ; preds = %54
  br label %60

60:                                               ; preds = %59, %51
  %61 = load ptr, ptr %5, align 8, !tbaa !22
  %62 = getelementptr inbounds nuw %struct.TiltandshiftContext, ptr %61, i32 0, i32 1
  %63 = load i32, ptr %62, align 8, !tbaa !45
  %64 = icmp ne i32 %63, 0
  br i1 %64, label %65, label %91

65:                                               ; preds = %60
  br label %66

66:                                               ; preds = %89, %65
  %67 = load ptr, ptr %5, align 8, !tbaa !22
  %68 = getelementptr inbounds nuw %struct.TiltandshiftContext, ptr %67, i32 0, i32 9
  %69 = load i64, ptr %68, align 8, !tbaa !46
  %70 = icmp ne i64 %69, 0
  br i1 %70, label %71, label %90

71:                                               ; preds = %66
  %72 = load ptr, ptr %4, align 8, !tbaa !4
  %73 = load ptr, ptr %5, align 8, !tbaa !22
  %74 = getelementptr inbounds nuw %struct.TiltandshiftContext, ptr %73, i32 0, i32 9
  %75 = load i64, ptr %74, align 8, !tbaa !46
  %76 = load ptr, ptr %3, align 8, !tbaa !31
  %77 = getelementptr inbounds nuw %struct.AVFilterLink, ptr %76, i32 0, i32 6
  %78 = load i32, ptr %77, align 8, !tbaa !47
  %79 = load ptr, ptr %5, align 8, !tbaa !22
  %80 = getelementptr inbounds nuw %struct.TiltandshiftContext, ptr %79, i32 0, i32 6
  %81 = load i32, ptr %80, align 4, !tbaa !48
  %82 = sub nsw i32 %78, %81
  call void (ptr, i32, ptr, ...) @av_log(ptr noundef %72, i32 noundef 48, ptr noundef @.str.5, i64 noundef %75, i32 noundef %82)
  %83 = load ptr, ptr %3, align 8, !tbaa !31
  %84 = call i32 @output_frame(ptr noundef %83)
  store i32 %84, ptr %6, align 4, !tbaa !44
  %85 = load i32, ptr %6, align 4, !tbaa !44
  %86 = icmp slt i32 %85, 0
  br i1 %86, label %87, label %89

87:                                               ; preds = %71
  %88 = load i32, ptr %6, align 4, !tbaa !44
  store i32 %88, ptr %2, align 4
  store i32 1, ptr %7, align 4
  br label %92

89:                                               ; preds = %71
  br label %66, !llvm.loop !74

90:                                               ; preds = %66
  br label %91

91:                                               ; preds = %90, %60
  store i32 0, ptr %2, align 4
  store i32 1, ptr %7, align 4
  br label %92

92:                                               ; preds = %91, %87, %57, %41
  call void @llvm.lifetime.end.p0(i64 4, ptr %6) #6
  call void @llvm.lifetime.end.p0(i64 8, ptr %5) #6
  call void @llvm.lifetime.end.p0(i64 8, ptr %4) #6
  %93 = load i32, ptr %2, align 4
  ret i32 %93
}