; Function Attrs: nounwind uwtable
define internal range(i32 -2147483648, 1) i32 @request_frame(ptr noundef %0) #1 {
  %2 = load ptr, ptr %0, align 8, !tbaa !39
  %3 = getelementptr inbounds nuw i8, ptr %2, i64 72
  %4 = load ptr, ptr %3, align 8, !tbaa !4
  %5 = getelementptr inbounds nuw i8, ptr %4, i64 80
  %6 = load i64, ptr %5, align 8, !tbaa !46
  %7 = icmp eq i64 %6, 0
  br i1 %7, label %20, label %8

8:                                                ; preds = %1
  %9 = getelementptr inbounds nuw i8, ptr %0, i64 40
  %10 = load i32, ptr %9, align 8, !tbaa !48
  %11 = getelementptr inbounds nuw i8, ptr %4, i64 28
  %12 = load i32, ptr %11, align 4, !tbaa !49
  %13 = sub nsw i32 %10, %12
  %14 = sext i32 %13 to i64
  %15 = icmp eq i64 %6, %14
  br i1 %15, label %20, label %16

16:                                               ; preds = %8
  %17 = getelementptr inbounds nuw i8, ptr %4, i64 20
  %18 = load i32, ptr %17, align 4, !tbaa !63
  %19 = icmp eq i32 %18, 0
  br i1 %19, label %20, label %23

20:                                               ; preds = %16, %8, %1
  %21 = getelementptr inbounds nuw i8, ptr %4, i64 8
  %22 = load i32, ptr %21, align 8, !tbaa !47
  %.not = icmp eq i32 %22, 0
  br i1 %.not, label %23, label %.loopexit

23:                                               ; preds = %20, %16
  %24 = getelementptr inbounds nuw i8, ptr %2, i64 32
  %25 = load ptr, ptr %24, align 8, !tbaa !66
  %26 = load ptr, ptr %25, align 8, !tbaa !37
  %27 = tail call i32 @ff_request_frame(ptr noundef %26) #6
  %28 = icmp eq i32 %27, -541478725
  br i1 %28, label %.thread, label %30

.thread:                                          ; preds = %23
  %29 = getelementptr inbounds nuw i8, ptr %4, i64 8
  store i32 1, ptr %29, align 8, !tbaa !47
  br label %.preheader

30:                                               ; preds = %23
  %31 = icmp slt i32 %27, 0
  br i1 %31, label %.loopexit, label %32

32:                                               ; preds = %30
  %.phi.trans.insert = getelementptr inbounds nuw i8, ptr %4, i64 8
  %.pre = load i32, ptr %.phi.trans.insert, align 8, !tbaa !47
  %33 = icmp eq i32 %.pre, 0
  br i1 %33, label %.loopexit, label %.preheader

.preheader:                                       ; preds = %.thread, %32
  %34 = getelementptr inbounds nuw i8, ptr %0, i64 40
  %35 = getelementptr inbounds nuw i8, ptr %4, i64 28
  br label %36

36:                                               ; preds = %.preheader, %38
  %37 = load i64, ptr %5, align 8, !tbaa !46
  %.not27 = icmp eq i64 %37, 0
  br i1 %.not27, label %.loopexit, label %38

38:                                               ; preds = %36
  %39 = load i32, ptr %34, align 8, !tbaa !48
  %40 = load i32, ptr %35, align 4, !tbaa !49
  %41 = sub nsw i32 %39, %40
  tail call void (ptr, i32, ptr, ...) @av_log(ptr noundef %2, i32 noundef 48, ptr noundef nonnull @.str.5, i64 noundef %37, i32 noundef %41) #6
  %42 = tail call fastcc i32 @output_frame(ptr noundef nonnull %0)
  %43 = icmp slt i32 %42, 0
  br i1 %43, label %.loopexit, label %36, !llvm.loop !67

.loopexit:                                        ; preds = %36, %38, %32, %30, %20
  %.0 = phi i32 [ -541478725, %20 ], [ %27, %30 ], [ 0, %32 ], [ 0, %36 ], [ %42, %38 ]
  ret i32 %.0
}